target datalayout = "e-m:e-p270:32:32-p271:32:32-p272:64:64-i64:64-i128:128-f80:128-n8:16:32:64-S128"
target triple = "x86_64-pc-linux-gnu"

%"class.ncnn::Layer" = type { ptr, i8, i8, i8, i8, i8, i8, i8, i8, i8, i8, i8, i8, i8, i8, i8, i8, i8, i8, i8, i8, i32, ptr, i32, %"class.std::__cxx11::basic_string", %"class.std::__cxx11::basic_string", %"class.std::vector", %"class.std::vector", %"class.std::vector.3", %"class.std::vector.3" }
%"class.std::__cxx11::basic_string" = type { %"struct.std::__cxx11::basic_string<char>::_Alloc_hider", i64, %union.anon }
%"struct.std::__cxx11::basic_string<char>::_Alloc_hider" = type { ptr }
%union.anon = type { i64, [8 x i8] }
%"class.std::vector" = type { %"struct.std::_Vector_base" }
%"struct.std::_Vector_base" = type { %"struct.std::_Vector_base<int, std::allocator<int>>::_Vector_impl" }
%"struct.std::_Vector_base<int, std::allocator<int>>::_Vector_impl" = type { %"struct.std::_Vector_base<int, std::allocator<int>>::_Vector_impl_data" }
%"struct.std::_Vector_base<int, std::allocator<int>>::_Vector_impl_data" = type { ptr, ptr, ptr }
%"class.std::vector.3" = type { %"struct.std::_Vector_base.4" }
%"struct.std::_Vector_base.4" = type { %"struct.std::_Vector_base<ncnn::Mat, std::allocator<ncnn::Mat>>::_Vector_impl" }
%"struct.std::_Vector_base<ncnn::Mat, std::allocator<ncnn::Mat>>::_Vector_impl" = type { %"struct.std::_Vector_base<ncnn::Mat, std::allocator<ncnn::Mat>>::_Vector_impl_data" }
%"struct.std::_Vector_base<ncnn::Mat, std::allocator<ncnn::Mat>>::_Vector_impl_data" = type { ptr, ptr, ptr }
%"class.ncnn::Pooling" = type <{ %"class.ncnn::Layer", i32, i32, i32, i32, i32, i32, i32, i32, i32, i32, i32, i32, i32, i32, i32, [4 x i8] }>

; Function Attrs: mustprogress uwtable
define hidden noundef i32 @_ZN4ncnn7Pooling10load_paramERKNS_9ParamDictE(ptr noundef nonnull align 8 dereferenceable(268) %0, ptr noundef nonnull align 8 dereferenceable(16) %1) unnamed_addr #0 align 2 {
  %3 = alloca ptr, align 8
  %4 = alloca ptr, align 8
  store ptr %0, ptr %3, align 8
  store ptr %1, ptr %4, align 8
  %5 = load ptr, ptr %3, align 8
  %6 = load ptr, ptr %4, align 8
  %7 = call noundef i32 @_ZNK4ncnn9ParamDict3getEii(ptr noundef nonnull align 8 dereferenceable(16) %6, i32 noundef 0, i32 noundef 0)
  %8 = getelementptr inbounds nuw %"class.ncnn::Pooling", ptr %5, i32 0, i32 1
  store i32 %7, ptr %8, align 8
  %9 = load ptr, ptr %4, align 8
  %10 = call noundef i32 @_ZNK4ncnn9ParamDict3getEii(ptr noundef nonnull align 8 dereferenceable(16) %9, i32 noundef 1, i32 noundef 0)
  %11 = getelementptr inbounds nuw %"class.ncnn::Pooling", ptr %5, i32 0, i32 2
  store i32 %10, ptr %11, align 4
  %12 = load ptr, ptr %4, align 8
  %13 = getelementptr inbounds nuw %"class.ncnn::Pooling", ptr %5, i32 0, i32 2
  %14 = load i32, ptr %13, align 4
  %15 = call noundef i32 @_ZNK4ncnn9ParamDict3getEii(ptr noundef nonnull align 8 dereferenceable(16) %12, i32 noundef 11, i32 noundef %14)
  %16 = getelementptr inbounds nuw %"class.ncnn::Pooling", ptr %5, i32 0, i32 3
  store i32 %15, ptr %16, align 8
  %17 = load ptr, ptr %4, align 8
  %18 = call noundef i32 @_ZNK4ncnn9ParamDict3getEii(ptr noundef nonnull align 8 dereferenceable(16) %17, i32 noundef 2, i32 noundef 1)
  %19 = getelementptr inbounds nuw %"class.ncnn::Pooling", ptr %5, i32 0, i32 4
  store i32 %18, ptr %19, align 4
  %20 = load ptr, ptr %4, align 8
  %21 = getelementptr inbounds nuw %"class.ncnn::Pooling", ptr %5, i32 0, i32 4
  %22 = load i32, ptr %21, align 4
  %23 = call noundef i32 @_ZNK4ncnn9ParamDict3getEii(ptr noundef nonnull align 8 dereferenceable(16) %20, i32 noundef 12, i32 noundef %22)
  %24 = getelementptr inbounds nuw %"class.ncnn::Pooling", ptr %5, i32 0, i32 5
  store i32 %23, ptr %24, align 8
  %25 = load ptr, ptr %4, align 8
  %26 = call noundef i32 @_ZNK4ncnn9ParamDict3getEii(ptr noundef nonnull align 8 dereferenceable(16) %25, i32 noundef 3, i32 noundef 0)
  %27 = getelementptr inbounds nuw %"class.ncnn::Pooling", ptr %5, i32 0, i32 6
  store i32 %26, ptr %27, align 4
  %28 = load ptr, ptr %4, align 8
  %29 = getelementptr inbounds nuw %"class.ncnn::Pooling", ptr %5, i32 0, i32 6
  %30 = load i32, ptr %29, align 4
  %31 = call noundef i32 @_ZNK4ncnn9ParamDict3getEii(ptr noundef nonnull align 8 dereferenceable(16) %28, i32 noundef 14, i32 noundef %30)
  %32 = getelementptr inbounds nuw %"class.ncnn::Pooling", ptr %5, i32 0, i32 7
  store i32 %31, ptr %32, align 8
  %33 = load ptr, ptr %4, align 8
  %34 = getelementptr inbounds nuw %"class.ncnn::Pooling", ptr %5, i32 0, i32 6
  %35 = load i32, ptr %34, align 4
  %36 = call noundef i32 @_ZNK4ncnn9ParamDict3getEii(ptr noundef nonnull align 8 dereferenceable(16) %33, i32 noundef 13, i32 noundef %35)
  %37 = getelementptr inbounds nuw %"class.ncnn::Pooling", ptr %5, i32 0, i32 8
  store i32 %36, ptr %37, align 4
  %38 = load ptr, ptr %4, align 8
  %39 = getelementptr inbounds nuw %"class.ncnn::Pooling", ptr %5, i32 0, i32 8
  %40 = load i32, ptr %39, align 4
  %41 = call noundef i32 @_ZNK4ncnn9ParamDict3getEii(ptr noundef nonnull align 8 dereferenceable(16) %38, i32 noundef 15, i32 noundef %40)
  %42 = getelementptr inbounds nuw %"class.ncnn::Pooling", ptr %5, i32 0, i32 9
  store i32 %41, ptr %42, align 8
  %43 = load ptr, ptr %4, align 8
  %44 = call noundef i32 @_ZNK4ncnn9ParamDict3getEii(ptr noundef nonnull align 8 dereferenceable(16) %43, i32 noundef 4, i32 noundef 0)
  %45 = getelementptr inbounds nuw %"class.ncnn::Pooling", ptr %5, i32 0, i32 10
  store i32 %44, ptr %45, align 4
  %46 = load ptr, ptr %4, align 8
  %47 = call noundef i32 @_ZNK4ncnn9ParamDict3getEii(ptr noundef nonnull align 8 dereferenceable(16) %46, i32 noundef 5, i32 noundef 0)
  %48 = getelementptr inbounds nuw %"class.ncnn::Pooling", ptr %5, i32 0, i32 11
  store i32 %47, ptr %48, align 8
  %49 = load ptr, ptr %4, align 8
  %50 = call noundef i32 @_ZNK4ncnn9ParamDict3getEii(ptr noundef nonnull align 8 dereferenceable(16) %49, i32 noundef 6, i32 noundef 0)
  %51 = getelementptr inbounds nuw %"class.ncnn::Pooling", ptr %5, i32 0, i32 12
  store i32 %50, ptr %51, align 4
  %52 = load ptr, ptr %4, align 8
  %53 = call noundef i32 @_ZNK4ncnn9ParamDict3getEii(ptr noundef nonnull align 8 dereferenceable(16) %52, i32 noundef 7, i32 noundef 0)
  %54 = getelementptr inbounds nuw %"class.ncnn::Pooling", ptr %5, i32 0, i32 13
  store i32 %53, ptr %54, align 8
  %55 = load ptr, ptr %4, align 8
  %56 = call noundef i32 @_ZNK4ncnn9ParamDict3getEii(ptr noundef nonnull align 8 dereferenceable(16) %55, i32 noundef 8, i32 noundef 0)
  %57 = getelementptr inbounds nuw %"class.ncnn::Pooling", ptr %5, i32 0, i32 14
  store i32 %56, ptr %57, align 4
  %58 = load ptr, ptr %4, align 8
  %59 = getelementptr inbounds nuw %"class.ncnn::Pooling", ptr %5, i32 0, i32 14
  %60 = load i32, ptr %59, align 4
  %61 = call noundef i32 @_ZNK4ncnn9ParamDict3getEii(ptr noundef nonnull align 8 dereferenceable(16) %58, i32 noundef 18, i32 noundef %60)
  %62 = getelementptr inbounds nuw %"class.ncnn::Pooling", ptr %5, i32 0, i32 15
  store i32 %61, ptr %62, align 8
  ret i32 0
}