; Function Attrs: mustprogress uwtable
define hidden noundef i32 @_ZN4ncnn7Pooling10load_paramERKNS_9ParamDictE(ptr nocapture noundef nonnull align 8 dereferenceable(268) %0, ptr noundef nonnull align 8 dereferenceable(16) %1) unnamed_addr #0 align 2 {
  %3 = tail call noundef i32 @_ZNK4ncnn9ParamDict3getEii(ptr noundef nonnull align 8 dereferenceable(16) %1, i32 noundef 0, i32 noundef 0)
  %4 = getelementptr inbounds nuw i8, ptr %0, i64 208
  store i32 %3, ptr %4, align 8
  %5 = tail call noundef i32 @_ZNK4ncnn9ParamDict3getEii(ptr noundef nonnull align 8 dereferenceable(16) %1, i32 noundef 1, i32 noundef 0)
  %6 = getelementptr inbounds nuw i8, ptr %0, i64 212
  store i32 %5, ptr %6, align 4
  %7 = tail call noundef i32 @_ZNK4ncnn9ParamDict3getEii(ptr noundef nonnull align 8 dereferenceable(16) %1, i32 noundef 11, i32 noundef %5)
  %8 = getelementptr inbounds nuw i8, ptr %0, i64 216
  store i32 %7, ptr %8, align 8
  %9 = tail call noundef i32 @_ZNK4ncnn9ParamDict3getEii(ptr noundef nonnull align 8 dereferenceable(16) %1, i32 noundef 2, i32 noundef 1)
  %10 = getelementptr inbounds nuw i8, ptr %0, i64 220
  store i32 %9, ptr %10, align 4
  %11 = tail call noundef i32 @_ZNK4ncnn9ParamDict3getEii(ptr noundef nonnull align 8 dereferenceable(16) %1, i32 noundef 12, i32 noundef %9)
  %12 = getelementptr inbounds nuw i8, ptr %0, i64 224
  store i32 %11, ptr %12, align 8
  %13 = tail call noundef i32 @_ZNK4ncnn9ParamDict3getEii(ptr noundef nonnull align 8 dereferenceable(16) %1, i32 noundef 3, i32 noundef 0)
  %14 = getelementptr inbounds nuw i8, ptr %0, i64 228
  store i32 %13, ptr %14, align 4
  %15 = tail call noundef i32 @_ZNK4ncnn9ParamDict3getEii(ptr noundef nonnull align 8 dereferenceable(16) %1, i32 noundef 14, i32 noundef %13)
  %16 = getelementptr inbounds nuw i8, ptr %0, i64 232
  store i32 %15, ptr %16, align 8
  %17 = load i32, ptr %14, align 4
  %18 = tail call noundef i32 @_ZNK4ncnn9ParamDict3getEii(ptr noundef nonnull align 8 dereferenceable(16) %1, i32 noundef 13, i32 noundef %17)
  %19 = getelementptr inbounds nuw i8, ptr %0, i64 236
  store i32 %18, ptr %19, align 4
  %20 = tail call noundef i32 @_ZNK4ncnn9ParamDict3getEii(ptr noundef nonnull align 8 dereferenceable(16) %1, i32 noundef 15, i32 noundef %18)
  %21 = getelementptr inbounds nuw i8, ptr %0, i64 240
  store i32 %20, ptr %21, align 8
  %22 = tail call noundef i32 @_ZNK4ncnn9ParamDict3getEii(ptr noundef nonnull align 8 dereferenceable(16) %1, i32 noundef 4, i32 noundef 0)
  %23 = getelementptr inbounds nuw i8, ptr %0, i64 244
  store i32 %22, ptr %23, align 4
  %24 = tail call noundef i32 @_ZNK4ncnn9ParamDict3getEii(ptr noundef nonnull align 8 dereferenceable(16) %1, i32 noundef 5, i32 noundef 0)
  %25 = getelementptr inbounds nuw i8, ptr %0, i64 248
  store i32 %24, ptr %25, align 8
  %26 = tail call noundef i32 @_ZNK4ncnn9ParamDict3getEii(ptr noundef nonnull align 8 dereferenceable(16) %1, i32 noundef 6, i32 noundef 0)
  %27 = getelementptr inbounds nuw i8, ptr %0, i64 252
  store i32 %26, ptr %27, align 4
  %28 = tail call noundef i32 @_ZNK4ncnn9ParamDict3getEii(ptr noundef nonnull align 8 dereferenceable(16) %1, i32 noundef 7, i32 noundef 0)
  %29 = getelementptr inbounds nuw i8, ptr %0, i64 256
  store i32 %28, ptr %29, align 8
  %30 = tail call noundef i32 @_ZNK4ncnn9ParamDict3getEii(ptr noundef nonnull align 8 dereferenceable(16) %1, i32 noundef 8, i32 noundef 0)
  %31 = getelementptr inbounds nuw i8, ptr %0, i64 260
  store i32 %30, ptr %31, align 4
  %32 = tail call noundef i32 @_ZNK4ncnn9ParamDict3getEii(ptr noundef nonnull align 8 dereferenceable(16) %1, i32 noundef 18, i32 noundef %30)
  %33 = getelementptr inbounds nuw i8, ptr %0, i64 264
  store i32 %32, ptr %33, align 8
  ret i32 0
}